; Function Attrs: nounwind uwtable
define ptr @l_Array_mapM_x27___at_Lean_Meta_DiscrTree_mapArrays___spec__7___rarg(ptr noundef %0, ptr noundef readonly captures(none) %1) local_unnamed_addr #2 {
lean_dec.exit:
  %2 = getelementptr i8, ptr %1, i64 8
  %.val = load i64, ptr %2, align 8, !tbaa !14
  %3 = and i64 %.val, 9223372036854775807
  %4 = shl i64 %.val, 3
  %5 = add i64 %4, 24
  %6 = tail call ptr @lean_alloc_object(i64 noundef %5) #7
  store i32 1, ptr %6, align 4, !tbaa !4
  %7 = getelementptr inbounds nuw i8, ptr %6, i64 4
  %8 = load i32, ptr %7, align 4
  %9 = and i32 %8, 65535
  %10 = or disjoint i32 %9, -167772160
  store i32 %10, ptr %7, align 4
  %11 = getelementptr inbounds nuw i8, ptr %6, i64 8
  store i64 0, ptr %11, align 8, !tbaa !14
  %12 = getelementptr inbounds nuw i8, ptr %6, i64 16
  store i64 %3, ptr %12, align 8, !tbaa !14
  %13 = tail call ptr @l_Array_mapM_x27_go___at_Lean_Meta_DiscrTree_mapArrays___spec__8___rarg(ptr noundef %0, ptr noundef %1, ptr noundef nonnull inttoptr (i64 1 to ptr), ptr noundef nonnull %6, ptr nonnull poison)
  ret ptr %13
}